; ModuleID = '33/954.c'
source_filename = "33/954.c"
target datalayout = "e-m:e-p270:32:32-p271:32:32-p272:64:64-i64:64-f80:128-n8:16:32:64-S128"
target triple = "x86_64-pc-linux-gnu"

@.str = private unnamed_addr constant [3 x i8] c"%d\00", align 1
@.str.1 = private unnamed_addr constant [3 x i8] c"%s\00", align 1
@.str.2 = private unnamed_addr constant [2 x i8] c"\0A\00", align 1

; Function Attrs: noinline nounwind uwtable
define dso_local i32 @main() #0 {
  %1 = alloca i32, align 4
  %2 = alloca i32, align 4
  %3 = alloca i32, align 4
  %4 = alloca i32, align 4
  %5 = alloca [256 x i8], align 16
  store i32 0, i32* %1, align 4
  %6 = call i32 (i8*, ...) @__isoc99_scanf(i8* getelementptr inbounds ([3 x i8], [3 x i8]* @.str, i64 0, i64 0), i32* %4)
  store i32 0, i32* %3, align 4
  br label %7

7:                                                ; preds = %79, %0
  %8 = load i32, i32* %3, align 4
  %9 = load i32, i32* %4, align 4
  %10 = icmp slt i32 %8, %9
  br i1 %10, label %11, label %82

11:                                               ; preds = %7
  %12 = call i32 (i8*, ...) @__isoc99_scanf(i8* getelementptr inbounds ([3 x i8], [3 x i8]* @.str.1, i64 0, i64 0), [256 x i8]* %5)
  store i32 0, i32* %2, align 4
  br label %13

13:                                               ; preds = %72, %11
  %14 = load i32, i32* %2, align 4
  %15 = icmp slt i32 %14, 256
  br i1 %15, label %16, label %75

16:                                               ; preds = %13
  %17 = load i32, i32* %2, align 4
  %18 = sext i32 %17 to i64
  %19 = getelementptr inbounds [256 x i8], [256 x i8]* %5, i64 0, i64 %18
  %20 = load i8, i8* %19, align 1
  %21 = sext i8 %20 to i32
  %22 = icmp eq i32 %21, 65
  br i1 %22, label %23, label %27

23:                                               ; preds = %16
  %24 = load i32, i32* %2, align 4
  %25 = sext i32 %24 to i64
  %26 = getelementptr inbounds [256 x i8], [256 x i8]* %5, i64 0, i64 %25
  store i8 84, i8* %26, align 1
  br label %63

27:                                               ; preds = %16
  %28 = load i32, i32* %2, align 4
  %29 = sext i32 %28 to i64
  %30 = getelementptr inbounds [256 x i8], [256 x i8]* %5, i64 0, i64 %29
  %31 = load i8, i8* %30, align 1
  %32 = sext i8 %31 to i32
  %33 = icmp eq i32 %32, 84
  br i1 %33, label %34, label %38

34:                                               ; preds = %27
  %35 = load i32, i32* %2, align 4
  %36 = sext i32 %35 to i64
  %37 = getelementptr inbounds [256 x i8], [256 x i8]* %5, i64 0, i64 %36
  store i8 65, i8* %37, align 1
  br label %62

38:                                               ; preds = %27
  %39 = load i32, i32* %2, align 4
  %40 = sext i32 %39 to i64
  %41 = getelementptr inbounds [256 x i8], [256 x i8]* %5, i64 0, i64 %40
  %42 = load i8, i8* %41, align 1
  %43 = sext i8 %42 to i32
  %44 = icmp eq i32 %43, 67
  br i1 %44, label %45, label %49

45:                                               ; preds = %38
  %46 = load i32, i32* %2, align 4
  %47 = sext i32 %46 to i64
  %48 = getelementptr inbounds [256 x i8], [256 x i8]* %5, i64 0, i64 %47
  store i8 71, i8* %48, align 1
  br label %61

49:                                               ; preds = %38
  %50 = load i32, i32* %2, align 4
  %51 = sext i32 %50 to i64
  %52 = getelementptr inbounds [256 x i8], [256 x i8]* %5, i64 0, i64 %51
  %53 = load i8, i8* %52, align 1
  %54 = sext i8 %53 to i32
  %55 = icmp eq i32 %54, 71
  br i1 %55, label %56, label %60

56:                                               ; preds = %49
  %57 = load i32, i32* %2, align 4
  %58 = sext i32 %57 to i64
  %59 = getelementptr inbounds [256 x i8], [256 x i8]* %5, i64 0, i64 %58
  store i8 67, i8* %59, align 1
  br label %60

60:                                               ; preds = %56, %49
  br label %61

61:                                               ; preds = %60, %45
  br label %62

62:                                               ; preds = %61, %34
  br label %63

63:                                               ; preds = %62, %23
  %64 = load i32, i32* %2, align 4
  %65 = sext i32 %64 to i64
  %66 = getelementptr inbounds [256 x i8], [256 x i8]* %5, i64 0, i64 %65
  %67 = load i8, i8* %66, align 1
  %68 = sext i8 %67 to i32
  %69 = icmp eq i32 %68, 0
  br i1 %69, label %70, label %71

70:                                               ; preds = %63
  br label %75

71:                                               ; preds = %63
  br label %72

72:                                               ; preds = %71
  %73 = load i32, i32* %2, align 4
  %74 = add nsw i32 %73, 1
  store i32 %74, i32* %2, align 4
  br label %13

75:                                               ; preds = %70, %13
  %76 = getelementptr inbounds [256 x i8], [256 x i8]* %5, i64 0, i64 0
  %77 = call i32 (i8*, ...) @printf(i8* getelementptr inbounds ([3 x i8], [3 x i8]* @.str.1, i64 0, i64 0), i8* %76)
  %78 = call i32 (i8*, ...) @printf(i8* getelementptr inbounds ([2 x i8], [2 x i8]* @.str.2, i64 0, i64 0))
  br label %79

79:                                               ; preds = %75
  %80 = load i32, i32* %3, align 4
  %81 = add nsw i32 %80, 1
  store i32 %81, i32* %3, align 4
  br label %7

82:                                               ; preds = %7
  ret i32 0
}

declare dso_local i32 @__isoc99_scanf(i8*, ...) #1

declare dso_local i32 @printf(i8*, ...) #1


!llvm.module.flags = !{!0}
!llvm.ident = !{!1}

!0 = !{i32 1, !"wchar_size", i32 4}
!1 = !{!"clang version 10.0.0-4ubuntu1 "}
